; Function Attrs: mustprogress uwtable
define void @_ZN5arrow9CPUDevice14memory_managerEPNS_10MemoryPoolE(ptr noalias sret(%"class.std::shared_ptr.14") align 8 %agg.result, ptr noundef %pool) local_unnamed_addr #4 align 2 personality ptr @__gxx_personality_v0 {
entry:
  %ref.tmp = alloca %"class.std::shared_ptr", align 16
  call void @_ZN5arrow9CPUDevice8InstanceEv(ptr nonnull sret(%"class.std::shared_ptr") align 8 %ref.tmp)
  %call.i1 = invoke noalias noundef nonnull dereferenceable(48) ptr @_Znwm(i64 noundef 48) #21
          to label %call.i.noexc unwind label %lpad

call.i.noexc:                                     ; preds = %entry
  %0 = getelementptr inbounds i8, ptr %call.i1, i64 8
  tail call void @llvm.memset.p0.i64(ptr noundef nonnull align 8 dereferenceable(16) %0, i8 0, i64 16, i1 false), !noalias !57
  store ptr getelementptr inbounds ({ [15 x ptr] }, ptr @_ZTVN5arrow13MemoryManagerE, i64 0, i32 0, i64 2), ptr %call.i1, align 8, !noalias !57
  %device_.i.i.i = getelementptr inbounds i8, ptr %call.i1, i64 24
  %_M_refcount3.i.i.i.i.i = getelementptr inbounds i8, ptr %ref.tmp, i64 8
  %1 = load <2 x ptr>, ptr %ref.tmp, align 16, !noalias !57
  store <2 x ptr> %1, ptr %device_.i.i.i, align 8, !noalias !57
  %2 = extractelement <2 x ptr> %1, i64 1
  %cmp.not.i.i.i.i.i.i = icmp eq ptr %2, null
  br i1 %cmp.not.i.i.i.i.i.i, label %invoke.cont.i, label %if.then.i.i.i.i.i.i

if.then.i.i.i.i.i.i:                              ; preds = %call.i.noexc
  %_M_use_count.i.i.i.i.i.i.i = getelementptr inbounds i8, ptr %2, i64 8
  %3 = load i8, ptr @__libc_single_threaded, align 1, !noalias !57
  %tobool.i.i.not.i.i.i.i.i.i.i = icmp eq i8 %3, 0
  br i1 %tobool.i.i.not.i.i.i.i.i.i.i, label %if.else.i.i.i.i.i.i.i.i, label %if.then.i.i.i.i.i.i.i.i

if.then.i.i.i.i.i.i.i.i:                          ; preds = %if.then.i.i.i.i.i.i
  %4 = load i32, ptr %_M_use_count.i.i.i.i.i.i.i, align 4, !noalias !57
  %add.i.i.i.i.i.i.i.i = add nsw i32 %4, 1
  store i32 %add.i.i.i.i.i.i.i.i, ptr %_M_use_count.i.i.i.i.i.i.i, align 4, !noalias !57
  br label %invoke.cont.i

if.else.i.i.i.i.i.i.i.i:                          ; preds = %if.then.i.i.i.i.i.i
  %5 = atomicrmw volatile add ptr %_M_use_count.i.i.i.i.i.i.i, i32 1 acq_rel, align 4, !noalias !57
  br label %invoke.cont.i

invoke.cont.i:                                    ; preds = %if.else.i.i.i.i.i.i.i.i, %if.then.i.i.i.i.i.i.i.i, %call.i.noexc
  store ptr getelementptr inbounds ({ [15 x ptr] }, ptr @_ZTVN5arrow16CPUMemoryManagerE, i64 0, i32 0, i64 2), ptr %call.i1, align 8, !noalias !57
  %pool_.i.i = getelementptr inbounds i8, ptr %call.i1, i64 40
  store ptr %pool, ptr %pool_.i.i, align 8, !noalias !57
  invoke void @_ZNSt12__shared_ptrIN5arrow13MemoryManagerELN9__gnu_cxx12_Lock_policyE2EEC2INS0_16CPUMemoryManagerEvEEPT_(ptr noundef nonnull align 8 dereferenceable(16) %agg.result, ptr noundef nonnull %call.i1)
          to label %invoke.cont unwind label %lpad

invoke.cont:                                      ; preds = %invoke.cont.i
  %6 = load ptr, ptr %_M_refcount3.i.i.i.i.i, align 8
  %cmp.not.i.i.i = icmp eq ptr %6, null
  br i1 %cmp.not.i.i.i, label %_ZNSt10shared_ptrIN5arrow6DeviceEED2Ev.exit, label %if.then.i.i.i

if.then.i.i.i:                                    ; preds = %invoke.cont
  %_M_use_count.i.i.i.i = getelementptr inbounds i8, ptr %6, i64 8
  %7 = load atomic i64, ptr %_M_use_count.i.i.i.i acquire, align 8
  %cmp.i.i.i.i = icmp eq i64 %7, 4294967297
  %8 = trunc i64 %7 to i32
  br i1 %cmp.i.i.i.i, label %if.then.i.i.i.i, label %if.end.i.i.i.i

if.then.i.i.i.i:                                  ; preds = %if.then.i.i.i
  store i32 0, ptr %_M_use_count.i.i.i.i, align 8
  %_M_weak_count.i.i.i.i = getelementptr inbounds i8, ptr %6, i64 12
  store i32 0, ptr %_M_weak_count.i.i.i.i, align 4
  %vtable.i.i.i.i = load ptr, ptr %6, align 8
  %vfn.i.i.i.i = getelementptr inbounds i8, ptr %vtable.i.i.i.i, i64 16
  %9 = load ptr, ptr %vfn.i.i.i.i, align 8
  tail call void %9(ptr noundef nonnull align 8 dereferenceable(16) %6) #18
  br label %if.end8.sink.split.i.i.i.i

if.end.i.i.i.i:                                   ; preds = %if.then.i.i.i
  %10 = load i8, ptr @__libc_single_threaded, align 1
  %tobool.i.not.i.i.i.i = icmp eq i8 %10, 0
  br i1 %tobool.i.not.i.i.i.i, label %if.else.i.i.i.i.i, label %if.then.i.i.i.i.i

if.then.i.i.i.i.i:                                ; preds = %if.end.i.i.i.i
  %add.i.i.i.i.i = add nsw i32 %8, -1
  store i32 %add.i.i.i.i.i, ptr %_M_use_count.i.i.i.i, align 4
  br label %_ZN9__gnu_cxx27__exchange_and_add_dispatchEPii.exit.i.i.i.i

if.else.i.i.i.i.i:                                ; preds = %if.end.i.i.i.i
  %11 = atomicrmw volatile add ptr %_M_use_count.i.i.i.i, i32 -1 acq_rel, align 4
  br label %_ZN9__gnu_cxx27__exchange_and_add_dispatchEPii.exit.i.i.i.i

_ZN9__gnu_cxx27__exchange_and_add_dispatchEPii.exit.i.i.i.i: ; preds = %if.else.i.i.i.i.i, %if.then.i.i.i.i.i
  %retval.i.0.i.i.i.i = phi i32 [ %8, %if.then.i.i.i.i.i ], [ %11, %if.else.i.i.i.i.i ]
  %cmp6.i.i.i.i = icmp eq i32 %retval.i.0.i.i.i.i, 1
  br i1 %cmp6.i.i.i.i, label %if.then7.i.i.i.i, label %_ZNSt10shared_ptrIN5arrow6DeviceEED2Ev.exit

if.then7.i.i.i.i:                                 ; preds = %_ZN9__gnu_cxx27__exchange_and_add_dispatchEPii.exit.i.i.i.i
  %vtable.i.i.i.i.i.i = load ptr, ptr %6, align 8
  %vfn.i.i.i.i.i.i = getelementptr inbounds i8, ptr %vtable.i.i.i.i.i.i, i64 16
  %12 = load ptr, ptr %vfn.i.i.i.i.i.i, align 8
  tail call void %12(ptr noundef nonnull align 8 dereferenceable(16) %6) #18
  %_M_weak_count.i.i.i.i.i.i = getelementptr inbounds i8, ptr %6, i64 12
  %13 = load i8, ptr @__libc_single_threaded, align 1
  %tobool.i.not.i.i.i.i.i.i = icmp eq i8 %13, 0
  br i1 %tobool.i.not.i.i.i.i.i.i, label %if.else.i.i.i.i.i.i.i, label %if.then.i.i.i.i.i.i.i

if.then.i.i.i.i.i.i.i:                            ; preds = %if.then7.i.i.i.i
  %14 = load i32, ptr %_M_weak_count.i.i.i.i.i.i, align 4
  %add.i.i.i.i.i.i.i = add nsw i32 %14, -1
  store i32 %add.i.i.i.i.i.i.i, ptr %_M_weak_count.i.i.i.i.i.i, align 4
  br label %_ZN9__gnu_cxx27__exchange_and_add_dispatchEPii.exit.i.i.i.i.i.i

if.else.i.i.i.i.i.i.i:                            ; preds = %if.then7.i.i.i.i
  %15 = atomicrmw volatile add ptr %_M_weak_count.i.i.i.i.i.i, i32 -1 acq_rel, align 4
  br label %_ZN9__gnu_cxx27__exchange_and_add_dispatchEPii.exit.i.i.i.i.i.i

_ZN9__gnu_cxx27__exchange_and_add_dispatchEPii.exit.i.i.i.i.i.i: ; preds = %if.else.i.i.i.i.i.i.i, %if.then.i.i.i.i.i.i.i
  %retval.i.0.i.i.i.i.i.i = phi i32 [ %14, %if.then.i.i.i.i.i.i.i ], [ %15, %if.else.i.i.i.i.i.i.i ]
  %cmp.i.i.i.i.i.i = icmp eq i32 %retval.i.0.i.i.i.i.i.i, 1
  br i1 %cmp.i.i.i.i.i.i, label %if.end8.sink.split.i.i.i.i, label %_ZNSt10shared_ptrIN5arrow6DeviceEED2Ev.exit

if.end8.sink.split.i.i.i.i:                       ; preds = %_ZN9__gnu_cxx27__exchange_and_add_dispatchEPii.exit.i.i.i.i.i.i, %if.then.i.i.i.i
  %vtable2.i.i.i.i.i.i = load ptr, ptr %6, align 8
  %vfn3.i.i.i.i.i.i = getelementptr inbounds i8, ptr %vtable2.i.i.i.i.i.i, i64 24
  %16 = load ptr, ptr %vfn3.i.i.i.i.i.i, align 8
  tail call void %16(ptr noundef nonnull align 8 dereferenceable(16) %6) #18
  br label %_ZNSt10shared_ptrIN5arrow6DeviceEED2Ev.exit

_ZNSt10shared_ptrIN5arrow6DeviceEED2Ev.exit:      ; preds = %invoke.cont, %_ZN9__gnu_cxx27__exchange_and_add_dispatchEPii.exit.i.i.i.i, %_ZN9__gnu_cxx27__exchange_and_add_dispatchEPii.exit.i.i.i.i.i.i, %if.end8.sink.split.i.i.i.i
  ret void

lpad:                                             ; preds = %invoke.cont.i, %entry
  %17 = landingpad { ptr, i32 }
          cleanup
  call void @_ZNSt10shared_ptrIN5arrow6DeviceEED2Ev(ptr noundef nonnull align 8 dereferenceable(16) %ref.tmp) #18
  resume { ptr, i32 } %17
}